target datalayout = "e-m:e-p270:32:32-p271:32:32-p272:64:64-i64:64-i128:128-f80:128-n8:16:32:64-S128"
target triple = "x86_64-pc-linux-gnu"

%struct.rdp_field_info_t = type { ptr, i32, ptr, i32, i32, ptr }

@hf_rdp_shareId = internal global i32 0, align 4
@hf_rdp_lengthSourceDescriptor = internal global i32 0, align 4
@hf_rdp_lengthCombinedCapabilities = internal global i32 0, align 4
@hf_rdp_sourceDescriptor = internal global i32 0, align 4
@hf_rdp_numberCapabilities = internal global i32 0, align 4
@hf_rdp_pad2Octets = internal global i32 0, align 4

; Function Attrs: null_pointer_is_valid sspstrong uwtable
define internal i32 @dissect_rdp_demandActivePDU(ptr noundef %0, i32 noundef %1, ptr noundef %2, ptr noundef %3) #0 {
  %5 = alloca ptr, align 8
  %6 = alloca i32, align 4
  %7 = alloca ptr, align 8
  %8 = alloca ptr, align 8
  %9 = alloca i32, align 4
  %10 = alloca i32, align 4
  %11 = alloca [7 x %struct.rdp_field_info_t], align 16
  %12 = alloca [2 x %struct.rdp_field_info_t], align 16
  store ptr %0, ptr %5, align 8
  store i32 %1, ptr %6, align 4
  store ptr %2, ptr %7, align 8
  store ptr %3, ptr %8, align 8
  call void @llvm.lifetime.start.p0(i64 4, ptr %9) #15
  call void @llvm.lifetime.start.p0(i64 4, ptr %10) #15
  store i32 0, ptr %10, align 4
  call void @llvm.lifetime.start.p0(i64 280, ptr %11) #15
  %13 = getelementptr inbounds nuw %struct.rdp_field_info_t, ptr %11, i32 0, i32 0
  store ptr @hf_rdp_shareId, ptr %13, align 8
  %14 = getelementptr inbounds nuw %struct.rdp_field_info_t, ptr %11, i32 0, i32 1
  store i32 4, ptr %14, align 8
  %15 = getelementptr i8, ptr %11, i64 12
  call void @llvm.memset.p0.i64(ptr align 4 %15, i8 0, i64 4, i1 false)
  %16 = getelementptr inbounds nuw %struct.rdp_field_info_t, ptr %11, i32 0, i32 2
  store ptr null, ptr %16, align 8
  %17 = getelementptr inbounds nuw %struct.rdp_field_info_t, ptr %11, i32 0, i32 3
  store i32 0, ptr %17, align 8
  %18 = getelementptr inbounds nuw %struct.rdp_field_info_t, ptr %11, i32 0, i32 4
  store i32 0, ptr %18, align 4
  %19 = getelementptr inbounds nuw %struct.rdp_field_info_t, ptr %11, i32 0, i32 5
  store ptr null, ptr %19, align 8
  %20 = getelementptr inbounds %struct.rdp_field_info_t, ptr %11, i64 1
  %21 = getelementptr inbounds nuw %struct.rdp_field_info_t, ptr %20, i32 0, i32 0
  store ptr @hf_rdp_lengthSourceDescriptor, ptr %21, align 8
  %22 = getelementptr inbounds nuw %struct.rdp_field_info_t, ptr %20, i32 0, i32 1
  store i32 2, ptr %22, align 8
  %23 = getelementptr i8, ptr %20, i64 12
  call void @llvm.memset.p0.i64(ptr align 4 %23, i8 0, i64 4, i1 false)
  %24 = getelementptr inbounds nuw %struct.rdp_field_info_t, ptr %20, i32 0, i32 2
  store ptr %9, ptr %24, align 8
  %25 = getelementptr inbounds nuw %struct.rdp_field_info_t, ptr %20, i32 0, i32 3
  store i32 0, ptr %25, align 8
  %26 = getelementptr inbounds nuw %struct.rdp_field_info_t, ptr %20, i32 0, i32 4
  store i32 0, ptr %26, align 4
  %27 = getelementptr inbounds nuw %struct.rdp_field_info_t, ptr %20, i32 0, i32 5
  store ptr null, ptr %27, align 8
  %28 = getelementptr inbounds %struct.rdp_field_info_t, ptr %11, i64 2
  %29 = getelementptr inbounds nuw %struct.rdp_field_info_t, ptr %28, i32 0, i32 0
  store ptr @hf_rdp_lengthCombinedCapabilities, ptr %29, align 8
  %30 = getelementptr inbounds nuw %struct.rdp_field_info_t, ptr %28, i32 0, i32 1
  store i32 2, ptr %30, align 8
  %31 = getelementptr i8, ptr %28, i64 12
  call void @llvm.memset.p0.i64(ptr align 4 %31, i8 0, i64 4, i1 false)
  %32 = getelementptr inbounds nuw %struct.rdp_field_info_t, ptr %28, i32 0, i32 2
  store ptr null, ptr %32, align 8
  %33 = getelementptr inbounds nuw %struct.rdp_field_info_t, ptr %28, i32 0, i32 3
  store i32 0, ptr %33, align 8
  %34 = getelementptr inbounds nuw %struct.rdp_field_info_t, ptr %28, i32 0, i32 4
  store i32 0, ptr %34, align 4
  %35 = getelementptr inbounds nuw %struct.rdp_field_info_t, ptr %28, i32 0, i32 5
  store ptr null, ptr %35, align 8
  %36 = getelementptr inbounds %struct.rdp_field_info_t, ptr %11, i64 3
  %37 = getelementptr inbounds nuw %struct.rdp_field_info_t, ptr %36, i32 0, i32 0
  store ptr @hf_rdp_sourceDescriptor, ptr %37, align 8
  %38 = getelementptr inbounds nuw %struct.rdp_field_info_t, ptr %36, i32 0, i32 1
  store i32 0, ptr %38, align 8
  %39 = getelementptr i8, ptr %36, i64 12
  call void @llvm.memset.p0.i64(ptr align 4 %39, i8 0, i64 4, i1 false)
  %40 = getelementptr inbounds nuw %struct.rdp_field_info_t, ptr %36, i32 0, i32 2
  store ptr %9, ptr %40, align 8
  %41 = getelementptr inbounds nuw %struct.rdp_field_info_t, ptr %36, i32 0, i32 3
  store i32 0, ptr %41, align 8
  %42 = getelementptr inbounds nuw %struct.rdp_field_info_t, ptr %36, i32 0, i32 4
  store i32 10, ptr %42, align 4
  %43 = getelementptr inbounds nuw %struct.rdp_field_info_t, ptr %36, i32 0, i32 5
  store ptr null, ptr %43, align 8
  %44 = getelementptr inbounds %struct.rdp_field_info_t, ptr %11, i64 4
  %45 = getelementptr inbounds nuw %struct.rdp_field_info_t, ptr %44, i32 0, i32 0
  store ptr @hf_rdp_numberCapabilities, ptr %45, align 8
  %46 = getelementptr inbounds nuw %struct.rdp_field_info_t, ptr %44, i32 0, i32 1
  store i32 2, ptr %46, align 8
  %47 = getelementptr i8, ptr %44, i64 12
  call void @llvm.memset.p0.i64(ptr align 4 %47, i8 0, i64 4, i1 false)
  %48 = getelementptr inbounds nuw %struct.rdp_field_info_t, ptr %44, i32 0, i32 2
  store ptr %10, ptr %48, align 8
  %49 = getelementptr inbounds nuw %struct.rdp_field_info_t, ptr %44, i32 0, i32 3
  store i32 0, ptr %49, align 8
  %50 = getelementptr inbounds nuw %struct.rdp_field_info_t, ptr %44, i32 0, i32 4
  store i32 0, ptr %50, align 4
  %51 = getelementptr inbounds nuw %struct.rdp_field_info_t, ptr %44, i32 0, i32 5
  store ptr null, ptr %51, align 8
  %52 = getelementptr inbounds %struct.rdp_field_info_t, ptr %11, i64 5
  %53 = getelementptr inbounds nuw %struct.rdp_field_info_t, ptr %52, i32 0, i32 0
  store ptr @hf_rdp_pad2Octets, ptr %53, align 8
  %54 = getelementptr inbounds nuw %struct.rdp_field_info_t, ptr %52, i32 0, i32 1
  store i32 2, ptr %54, align 8
  %55 = getelementptr i8, ptr %52, i64 12
  call void @llvm.memset.p0.i64(ptr align 4 %55, i8 0, i64 4, i1 false)
  %56 = getelementptr inbounds nuw %struct.rdp_field_info_t, ptr %52, i32 0, i32 2
  store ptr null, ptr %56, align 8
  %57 = getelementptr inbounds nuw %struct.rdp_field_info_t, ptr %52, i32 0, i32 3
  store i32 0, ptr %57, align 8
  %58 = getelementptr inbounds nuw %struct.rdp_field_info_t, ptr %52, i32 0, i32 4
  store i32 0, ptr %58, align 4
  %59 = getelementptr inbounds nuw %struct.rdp_field_info_t, ptr %52, i32 0, i32 5
  store ptr null, ptr %59, align 8
  %60 = getelementptr inbounds %struct.rdp_field_info_t, ptr %11, i64 6
  call void @llvm.memset.p0.i64(ptr align 8 %60, i8 0, i64 40, i1 false)
  call void @llvm.lifetime.start.p0(i64 80, ptr %12) #15
  call void @llvm.memcpy.p0.p0.i64(ptr align 16 %12, ptr align 16 @__const.dissect_rdp_demandActivePDU.final_fields, i64 80, i1 false)
  %61 = load ptr, ptr %5, align 8
  %62 = load i32, ptr %6, align 4
  %63 = load ptr, ptr %7, align 8
  %64 = load ptr, ptr %8, align 8
  %65 = getelementptr inbounds [7 x %struct.rdp_field_info_t], ptr %11, i64 0, i64 0
  %66 = call i32 @dissect_rdp_fields(ptr noundef %61, i32 noundef %62, ptr noundef %63, ptr noundef %64, ptr noundef %65, i32 noundef 0)
  store i32 %66, ptr %6, align 4
  %67 = load ptr, ptr %5, align 8
  %68 = load i32, ptr %6, align 4
  %69 = load ptr, ptr %7, align 8
  %70 = load ptr, ptr %8, align 8
  %71 = load i32, ptr %10, align 4
  %72 = call i32 @dissect_rdp_capabilitySets(ptr noundef %67, i32 noundef %68, ptr noundef %69, ptr noundef %70, i32 noundef %71)
  store i32 %72, ptr %6, align 4
  %73 = load ptr, ptr %5, align 8
  %74 = load i32, ptr %6, align 4
  %75 = load ptr, ptr %7, align 8
  %76 = load ptr, ptr %8, align 8
  %77 = getelementptr inbounds [2 x %struct.rdp_field_info_t], ptr %12, i64 0, i64 0
  %78 = call i32 @dissect_rdp_fields(ptr noundef %73, i32 noundef %74, ptr noundef %75, ptr noundef %76, ptr noundef %77, i32 noundef 0)
  store i32 %78, ptr %6, align 4
  %79 = load i32, ptr %6, align 4
  call void @llvm.lifetime.end.p0(i64 80, ptr %12) #15
  call void @llvm.lifetime.end.p0(i64 280, ptr %11) #15
  call void @llvm.lifetime.end.p0(i64 4, ptr %10) #15
  call void @llvm.lifetime.end.p0(i64 4, ptr %9) #15
  ret i32 %79
}