; Function Attrs: null_pointer_is_valid sspstrong uwtable
define internal fastcc void @dissect_rdp_demandActivePDU(ptr noundef %0, i32 noundef %1, ptr noundef %2, ptr noundef %3) unnamed_addr #0 {
  %5 = alloca i32, align 4
  %6 = alloca i32, align 4
  %7 = alloca [7 x %struct.rdp_field_info_t], align 16
  call void @llvm.lifetime.start.p0(i64 4, ptr nonnull %5) #14
  call void @llvm.lifetime.start.p0(i64 4, ptr nonnull %6) #14
  store i32 0, ptr %6, align 4
  call void @llvm.lifetime.start.p0(i64 280, ptr nonnull %7) #14
  store ptr @hf_rdp_shareId, ptr %7, align 16
  %8 = getelementptr inbounds nuw i8, ptr %7, i64 8
  store i32 4, ptr %8, align 8
  %9 = getelementptr inbounds nuw i8, ptr %7, i64 12
  %10 = getelementptr inbounds nuw i8, ptr %7, i64 40
  call void @llvm.memset.p0.i64(ptr noundef nonnull align 4 dereferenceable(28) %9, i8 0, i64 28, i1 false)
  store ptr @hf_rdp_lengthSourceDescriptor, ptr %10, align 8
  %11 = getelementptr inbounds nuw i8, ptr %7, i64 48
  store i32 2, ptr %11, align 16
  %12 = getelementptr inbounds nuw i8, ptr %7, i64 52
  store i32 0, ptr %12, align 4
  %13 = getelementptr inbounds nuw i8, ptr %7, i64 56
  store ptr %5, ptr %13, align 8
  %14 = getelementptr inbounds nuw i8, ptr %7, i64 64
  %15 = getelementptr inbounds nuw i8, ptr %7, i64 80
  call void @llvm.memset.p0.i64(ptr noundef nonnull align 16 dereferenceable(16) %14, i8 0, i64 16, i1 false)
  store ptr @hf_rdp_lengthCombinedCapabilities, ptr %15, align 16
  %16 = getelementptr inbounds nuw i8, ptr %7, i64 88
  store i32 2, ptr %16, align 8
  %17 = getelementptr inbounds nuw i8, ptr %7, i64 92
  %18 = getelementptr inbounds nuw i8, ptr %7, i64 120
  call void @llvm.memset.p0.i64(ptr noundef nonnull align 4 dereferenceable(28) %17, i8 0, i64 28, i1 false)
  store ptr @hf_rdp_sourceDescriptor, ptr %18, align 8
  %19 = getelementptr inbounds nuw i8, ptr %7, i64 128
  store i32 0, ptr %19, align 16
  %20 = getelementptr inbounds nuw i8, ptr %7, i64 132
  store i32 0, ptr %20, align 4
  %21 = getelementptr inbounds nuw i8, ptr %7, i64 136
  store ptr %5, ptr %21, align 8
  %22 = getelementptr inbounds nuw i8, ptr %7, i64 144
  store i32 0, ptr %22, align 16
  %23 = getelementptr inbounds nuw i8, ptr %7, i64 148
  store i32 10, ptr %23, align 4
  %24 = getelementptr inbounds nuw i8, ptr %7, i64 152
  store ptr null, ptr %24, align 8
  %25 = getelementptr inbounds nuw i8, ptr %7, i64 160
  store ptr @hf_rdp_numberCapabilities, ptr %25, align 16
  %26 = getelementptr inbounds nuw i8, ptr %7, i64 168
  store i32 2, ptr %26, align 8
  %27 = getelementptr inbounds nuw i8, ptr %7, i64 172
  store i32 0, ptr %27, align 4
  %28 = getelementptr inbounds nuw i8, ptr %7, i64 176
  store ptr %6, ptr %28, align 16
  %29 = getelementptr inbounds nuw i8, ptr %7, i64 184
  %30 = getelementptr inbounds nuw i8, ptr %7, i64 200
  call void @llvm.memset.p0.i64(ptr noundef nonnull align 8 dereferenceable(16) %29, i8 0, i64 16, i1 false)
  store ptr @hf_rdp_pad2Octets, ptr %30, align 8
  %31 = getelementptr inbounds nuw i8, ptr %7, i64 208
  store i32 2, ptr %31, align 16
  %32 = getelementptr inbounds nuw i8, ptr %7, i64 212
  call void @llvm.memset.p0.i64(ptr noundef nonnull align 4 dereferenceable(68) %32, i8 0, i64 68, i1 false)
  %33 = call fastcc i32 @dissect_rdp_fields(ptr noundef %0, i32 noundef %1, ptr noundef %2, ptr noundef %3, ptr noundef nonnull %7, i32 noundef 0)
  %34 = load i32, ptr %6, align 4
  %35 = call fastcc i32 @dissect_rdp_capabilitySets(ptr noundef %0, i32 noundef %33, ptr noundef %2, ptr noundef %3, i32 noundef %34)
  %36 = call fastcc i32 @dissect_rdp_fields(ptr noundef %0, i32 noundef %35, ptr noundef %2, ptr noundef %3, ptr noundef nonnull @__const.dissect_rdp_demandActivePDU.final_fields, i32 noundef 0)
  call void @llvm.lifetime.end.p0(i64 280, ptr nonnull %7) #14
  call void @llvm.lifetime.end.p0(i64 4, ptr nonnull %6) #14
  call void @llvm.lifetime.end.p0(i64 4, ptr nonnull %5) #14
  ret void
}